; Function Attrs: nounwind uwtable
define ptr @l_Lake_Hash_ofString_x3f(ptr noundef %0) local_unnamed_addr #0 {
lean_nat_eq.exit:
  %1 = getelementptr i8, ptr %0, i64 8
  %.val = load i64, ptr %1, align 8, !tbaa !15
  %2 = shl i64 %.val, 1
  %3 = add i64 %2, -1
  %4 = inttoptr i64 %3 to ptr
  %.not = icmp eq i64 %3, 1
  br i1 %.not, label %lean_dec.exit23, label %5

5:                                                ; preds = %lean_nat_eq.exit
  %6 = tail call zeroext i8 @l_String_anyAux___at_String_isNat___spec__1(ptr noundef nonnull %0, ptr noundef nonnull %4, ptr noundef nonnull inttoptr (i64 1 to ptr)) #4
  %7 = icmp eq i8 %6, 0
  br i1 %7, label %lean_dec.exit25, label %lean_dec.exit23

lean_dec.exit25:                                  ; preds = %5
  %8 = tail call ptr @l_String_foldlAux___at_String_toNat_x3f___spec__1(ptr noundef nonnull %0, ptr noundef nonnull %4, ptr noundef nonnull inttoptr (i64 1 to ptr), ptr noundef nonnull inttoptr (i64 1 to ptr)) #4
  %9 = ptrtoint ptr %8 to i64
  %10 = and i64 %9, 1
  %.not.i32 = icmp eq i64 %10, 0
  br i1 %.not.i32, label %12, label %lean_uint64_of_nat.exit.thread

lean_uint64_of_nat.exit.thread:                   ; preds = %lean_dec.exit25
  %11 = lshr i64 %9, 1
  br label %lean_dec.exit24

12:                                               ; preds = %lean_dec.exit25
  %13 = tail call i64 @lean_uint64_of_big_nat(ptr noundef %8) #4
  %14 = load i32, ptr %8, align 4, !tbaa !4
  %15 = icmp sgt i32 %14, 1
  br i1 %15, label %16, label %18, !prof !13

16:                                               ; preds = %12
  %17 = add nsw i32 %14, -1
  store i32 %17, ptr %8, align 4, !tbaa !4
  br label %lean_dec.exit24

18:                                               ; preds = %12
  %.not.i26 = icmp eq i32 %14, 0
  br i1 %.not.i26, label %lean_dec.exit24, label %19

19:                                               ; preds = %18
  tail call void @lean_dec_ref_cold(ptr noundef nonnull %8) #4
  br label %lean_dec.exit24

lean_dec.exit24:                                  ; preds = %19, %18, %16, %lean_uint64_of_nat.exit.thread
  %20 = phi i64 [ %11, %lean_uint64_of_nat.exit.thread ], [ %13, %16 ], [ %13, %18 ], [ %13, %19 ]
  tail call void @lean_inc_heartbeat() #4
  %21 = tail call noalias ptr @mi_malloc_small(i64 noundef 16) #4
  %22 = icmp eq ptr %21, null
  br i1 %22, label %23, label %lean_box_uint64.exit

23:                                               ; preds = %lean_dec.exit24
  tail call void @lean_internal_panic_out_of_memory() #5
  unreachable

lean_box_uint64.exit:                             ; preds = %lean_dec.exit24
  %24 = getelementptr inbounds nuw i8, ptr %21, i64 4
  store i32 1, ptr %21, align 4, !tbaa !4
  store i32 16, ptr %24, align 4
  %25 = getelementptr inbounds nuw i8, ptr %21, i64 8
  store i64 %20, ptr %25, align 8, !tbaa !15
  tail call void @lean_inc_heartbeat() #4
  %26 = tail call noalias ptr @mi_malloc_small(i64 noundef 16) #4
  %27 = icmp eq ptr %26, null
  br i1 %27, label %28, label %lean_alloc_ctor.exit

28:                                               ; preds = %lean_box_uint64.exit
  tail call void @lean_internal_panic_out_of_memory() #5
  unreachable

lean_alloc_ctor.exit:                             ; preds = %lean_box_uint64.exit
  %29 = getelementptr inbounds nuw i8, ptr %26, i64 4
  store i32 1, ptr %26, align 4, !tbaa !4
  store i32 16842768, ptr %29, align 4
  %30 = getelementptr inbounds nuw i8, ptr %26, i64 8
  store ptr %21, ptr %30, align 8, !tbaa !9
  br label %lean_dec.exit23

lean_dec.exit23:                                  ; preds = %lean_nat_eq.exit, %5, %lean_alloc_ctor.exit
  %.1 = phi ptr [ %26, %lean_alloc_ctor.exit ], [ inttoptr (i64 1 to ptr), %5 ], [ inttoptr (i64 1 to ptr), %lean_nat_eq.exit ]
  ret ptr %.1
}